target datalayout = "e-m:e-p270:32:32-p271:32:32-p272:64:64-i64:64-i128:128-f80:128-n8:16:32:64-S128"
target triple = "x86_64-unknown-linux-gnu"

%struct.DeviceState = type { %struct.Object, ptr, ptr, i8, i8, i64, ptr, i32, i8, ptr, %struct.NamedGPIOListHead, %struct.NamedClockListHead, %struct.BusStateHead, i32, i32, i32, %struct.ResettableState, ptr, %struct.MemReentrancyGuard }
%struct.Object = type { ptr, ptr, ptr, i32, ptr }
%struct.NamedGPIOListHead = type { ptr }
%struct.NamedClockListHead = type { ptr }
%struct.BusStateHead = type { ptr }
%struct.ResettableState = type { i32, i8, i8 }
%struct.MemReentrancyGuard = type { i8 }

@.str = private unnamed_addr constant [34 x i8] c"../qemu/hw/core/qdev-properties.c\00", align 1
@__func__.qdev_prop_set_after_realize = private unnamed_addr constant [28 x i8] c"qdev_prop_set_after_realize\00", align 1
@.str.1 = private unnamed_addr constant [78 x i8] c"Attempt to set property '%s' on device '%s' (type '%s') after it was realized\00", align 1
@.str.2 = private unnamed_addr constant [83 x i8] c"Attempt to set property '%s' on anonymous device (type '%s') after it was realized\00", align 1

; Function Attrs: nounwind sspstrong uwtable
define dso_local void @qdev_prop_set_after_realize(ptr noundef %dev, ptr noundef %name, ptr noundef %errp) #0 {
entry:
  %dev.addr = alloca ptr, align 8
  %name.addr = alloca ptr, align 8
  %errp.addr = alloca ptr, align 8
  store ptr %dev, ptr %dev.addr, align 8
  store ptr %name, ptr %name.addr, align 8
  store ptr %errp, ptr %errp.addr, align 8
  %0 = load ptr, ptr %dev.addr, align 8
  %id = getelementptr inbounds %struct.DeviceState, ptr %0, i32 0, i32 1
  %1 = load ptr, ptr %id, align 8
  %tobool = icmp ne ptr %1, null
  br i1 %tobool, label %if.then, label %if.else

if.then:                                          ; preds = %entry
  %2 = load ptr, ptr %errp.addr, align 8
  %3 = load ptr, ptr %name.addr, align 8
  %4 = load ptr, ptr %dev.addr, align 8
  %id1 = getelementptr inbounds %struct.DeviceState, ptr %4, i32 0, i32 1
  %5 = load ptr, ptr %id1, align 8
  %6 = load ptr, ptr %dev.addr, align 8
  %call = call ptr @object_get_typename(ptr noundef %6)
  call void (ptr, ptr, i32, ptr, ptr, ...) @error_setg_internal(ptr noundef %2, ptr noundef @.str, i32 noundef 21, ptr noundef @__func__.qdev_prop_set_after_realize, ptr noundef @.str.1, ptr noundef %3, ptr noundef %5, ptr noundef %call)
  br label %if.end

if.else:                                          ; preds = %entry
  %7 = load ptr, ptr %errp.addr, align 8
  %8 = load ptr, ptr %name.addr, align 8
  %9 = load ptr, ptr %dev.addr, align 8
  %call2 = call ptr @object_get_typename(ptr noundef %9)
  call void (ptr, ptr, i32, ptr, ptr, ...) @error_setg_internal(ptr noundef %7, ptr noundef @.str, i32 noundef 25, ptr noundef @__func__.qdev_prop_set_after_realize, ptr noundef @.str.2, ptr noundef %8, ptr noundef %call2)
  br label %if.end

if.end:                                           ; preds = %if.else, %if.then
  ret void
}