; Function Attrs: nounwind sspstrong uwtable
define dso_local void @qdev_prop_set_after_realize(ptr noundef %dev, ptr noundef %name, ptr noundef %errp) local_unnamed_addr #0 {
entry:
  %id = getelementptr inbounds nuw i8, ptr %dev, i64 40
  %0 = load ptr, ptr %id, align 8
  %tobool.not = icmp eq ptr %0, null
  %call2 = tail call ptr @object_get_typename(ptr noundef nonnull %dev) #9
  br i1 %tobool.not, label %if.else, label %if.then

if.then:                                          ; preds = %entry
  tail call void (ptr, ptr, i32, ptr, ptr, ...) @error_setg_internal(ptr noundef %errp, ptr noundef nonnull @.str, i32 noundef 21, ptr noundef nonnull @__func__.qdev_prop_set_after_realize, ptr noundef nonnull @.str.1, ptr noundef %name, ptr noundef nonnull %0, ptr noundef %call2) #9
  br label %if.end

if.else:                                          ; preds = %entry
  tail call void (ptr, ptr, i32, ptr, ptr, ...) @error_setg_internal(ptr noundef %errp, ptr noundef nonnull @.str, i32 noundef 25, ptr noundef nonnull @__func__.qdev_prop_set_after_realize, ptr noundef nonnull @.str.2, ptr noundef %name, ptr noundef %call2) #9
  br label %if.end

if.end:                                           ; preds = %if.else, %if.then
  ret void
}